; Function Attrs: nounwind uwtable
define range(i32 -34, -2147483648) i32 @av_channel_description(ptr noundef %0, i64 noundef %1, i32 noundef %2) local_unnamed_addr #0 {
  %4 = alloca %struct.AVBPrint, align 8
  call void @llvm.lifetime.start.p0(i64 1024, ptr nonnull %4) #16
  %5 = icmp eq ptr %0, null
  %6 = icmp ne i64 %1, 0
  %or.cond = and i1 %5, %6
  br i1 %or.cond, label %13, label %7

7:                                                ; preds = %3
  %8 = trunc i64 %1 to i32
  call void @av_bprint_init_for_buffer(ptr noundef nonnull %4, ptr noundef %0, i32 noundef %8) #16
  call void @av_channel_description_bprint(ptr noundef nonnull %4, i32 noundef %2)
  %9 = getelementptr inbounds nuw i8, ptr %4, i64 8
  %10 = load i32, ptr %9, align 8, !tbaa !10
  %11 = icmp ugt i32 %10, 2147483646
  %12 = add nuw nsw i32 %10, 1
  %spec.select = select i1 %11, i32 -34, i32 %12
  br label %13

13:                                               ; preds = %7, %3
  %.0 = phi i32 [ -22, %3 ], [ %spec.select, %7 ]
  call void @llvm.lifetime.end.p0(i64 1024, ptr nonnull %4) #16
  ret i32 %.0
}